; ModuleID = 'source-C-CXX/22/304.cpp'
source_filename = "source-C-CXX/22/304.cpp"
target datalayout = "e-m:e-p270:32:32-p271:32:32-p272:64:64-i64:64-f80:128-n8:16:32:64-S128"
target triple = "x86_64-pc-linux-gnu"

%"class.std::ios_base::Init" = type { i8 }
%"class.std::basic_istream" = type { i32 (...)**, i64, %"class.std::basic_ios" }
%"class.std::basic_ios" = type { %"class.std::ios_base", %"class.std::basic_ostream"*, i8, i8, %"class.std::basic_streambuf"*, %"class.std::ctype"*, %"class.std::num_put"*, %"class.std::num_get"* }
%"class.std::ios_base" = type { i32 (...)**, i64, i64, i32, i32, i32, %"struct.std::ios_base::_Callback_list"*, %"struct.std::ios_base::_Words", [8 x %"struct.std::ios_base::_Words"], i32, %"struct.std::ios_base::_Words"*, %"class.std::locale" }
%"struct.std::ios_base::_Callback_list" = type { %"struct.std::ios_base::_Callback_list"*, void (i32, %"class.std::ios_base"*, i32)*, i32, i32 }
%"struct.std::ios_base::_Words" = type { i8*, i64 }
%"class.std::locale" = type { %"class.std::locale::_Impl"* }
%"class.std::locale::_Impl" = type { i32, %"class.std::locale::facet"**, i64, %"class.std::locale::facet"**, i8** }
%"class.std::locale::facet" = type <{ i32 (...)**, i32, [4 x i8] }>
%"class.std::basic_ostream" = type { i32 (...)**, %"class.std::basic_ios" }
%"class.std::basic_streambuf" = type { i32 (...)**, i8*, i8*, i8*, i8*, i8*, i8*, %"class.std::locale" }
%"class.std::ctype" = type <{ %"class.std::locale::facet.base", [4 x i8], %struct.__locale_struct*, i8, [7 x i8], i32*, i32*, i16*, i8, [256 x i8], [256 x i8], i8, [6 x i8] }>
%"class.std::locale::facet.base" = type <{ i32 (...)**, i32 }>
%struct.__locale_struct = type { [13 x %struct.__locale_data*], i16*, i32*, i32*, [13 x i8*] }
%struct.__locale_data = type opaque
%"class.std::num_put" = type { %"class.std::locale::facet.base", [4 x i8] }
%"class.std::num_get" = type { %"class.std::locale::facet.base", [4 x i8] }

@_ZStL8__ioinit = internal global %"class.std::ios_base::Init" zeroinitializer, align 1
@__dso_handle = external hidden global i8
@_ZSt3cin = external global %"class.std::basic_istream", align 8
@_ZSt4cout = external global %"class.std::basic_ostream", align 8
@llvm.global_ctors = appending global [1 x { i32, void ()*, i8* }] [{ i32, void ()*, i8* } { i32 65535, void ()* @_GLOBAL__sub_I_304.cpp, i8* null }]

declare void @_ZNSt8ios_base4InitC1Ev(%"class.std::ios_base::Init"* nonnull align 1 dereferenceable(1)) unnamed_addr #0

; Function Attrs: nounwind
declare void @_ZNSt8ios_base4InitD1Ev(%"class.std::ios_base::Init"* nonnull align 1 dereferenceable(1)) unnamed_addr #1

; Function Attrs: nofree nounwind
declare i32 @__cxa_atexit(void (i8*)*, i8*, i8*) local_unnamed_addr #2

; Function Attrs: mustprogress norecurse sspstrong uwtable
define dso_local i32 @main() local_unnamed_addr #3 {
  %1 = alloca i8, align 1
  %2 = alloca [100 x [100 x i8]], align 16
  %3 = getelementptr inbounds [100 x [100 x i8]], [100 x [100 x i8]]* %2, i64 0, i64 0, i64 0
  call void @llvm.lifetime.start.p0i8(i64 10000, i8* nonnull %3) #8
  br label %4

4:                                                ; preds = %4, %0
  %5 = phi i64 [ %20, %4 ], [ 0, %0 ]
  %6 = getelementptr inbounds [100 x [100 x i8]], [100 x [100 x i8]]* %2, i64 0, i64 %5, i64 0
  %7 = call nonnull align 8 dereferenceable(16) %"class.std::basic_istream"* @_ZNSi7getlineEPclc(%"class.std::basic_istream"* nonnull align 8 dereferenceable(16) @_ZSt3cin, i8* nonnull %6, i64 101, i8 signext 32)
  %8 = bitcast %"class.std::basic_istream"* %7 to i8**
  %9 = load i8*, i8** %8, align 8, !tbaa !5
  %10 = getelementptr i8, i8* %9, i64 -24
  %11 = bitcast i8* %10 to i64*
  %12 = load i64, i64* %11, align 8
  %13 = bitcast %"class.std::basic_istream"* %7 to i8*
  %14 = add nsw i64 %12, 32
  %15 = getelementptr inbounds i8, i8* %13, i64 %14
  %16 = bitcast i8* %15 to i32*
  %17 = load i32, i32* %16, align 8, !tbaa !8
  %18 = and i32 %17, 5
  %19 = icmp eq i32 %18, 0
  %20 = add nuw i64 %5, 1
  br i1 %19, label %4, label %21, !llvm.loop !18

21:                                               ; preds = %4
  %22 = trunc i64 %5 to i32
  %23 = add nsw i32 %22, -1
  %24 = sext i32 %23 to i64
  br label %25

25:                                               ; preds = %72, %21
  %26 = phi i64 [ 0, %21 ], [ %73, %72 ]
  %27 = phi <8 x i64> [ <i64 0, i64 1, i64 2, i64 3, i64 4, i64 5, i64 6, i64 7>, %21 ], [ %74, %72 ]
  %28 = getelementptr inbounds [100 x [100 x i8]], [100 x [100 x i8]]* %2, i64 0, i64 %24, i64 %26
  %29 = bitcast i8* %28 to <8 x i8>*
  %30 = load <8 x i8>, <8 x i8>* %29, align 4, !tbaa !20
  %31 = icmp eq <8 x i8> %30, zeroinitializer
  %32 = add nsw <8 x i64> %27, <i64 -1, i64 -1, i64 -1, i64 -1, i64 -1, i64 -1, i64 -1, i64 -1>
  %33 = extractelement <8 x i1> %31, i32 0
  br i1 %33, label %34, label %37

34:                                               ; preds = %25
  %35 = extractelement <8 x i64> %32, i32 0
  %36 = getelementptr inbounds [100 x [100 x i8]], [100 x [100 x i8]]* %2, i64 0, i64 %24, i64 %35
  store i8 0, i8* %36, align 1, !tbaa !20
  br label %37

37:                                               ; preds = %34, %25
  %38 = extractelement <8 x i1> %31, i32 1
  br i1 %38, label %39, label %42

39:                                               ; preds = %37
  %40 = extractelement <8 x i64> %32, i32 1
  %41 = getelementptr inbounds [100 x [100 x i8]], [100 x [100 x i8]]* %2, i64 0, i64 %24, i64 %40
  store i8 0, i8* %41, align 1, !tbaa !20
  br label %42

42:                                               ; preds = %39, %37
  %43 = extractelement <8 x i1> %31, i32 2
  br i1 %43, label %44, label %47

44:                                               ; preds = %42
  %45 = extractelement <8 x i64> %32, i32 2
  %46 = getelementptr inbounds [100 x [100 x i8]], [100 x [100 x i8]]* %2, i64 0, i64 %24, i64 %45
  store i8 0, i8* %46, align 1, !tbaa !20
  br label %47

47:                                               ; preds = %44, %42
  %48 = extractelement <8 x i1> %31, i32 3
  br i1 %48, label %49, label %52

49:                                               ; preds = %47
  %50 = extractelement <8 x i64> %32, i32 3
  %51 = getelementptr inbounds [100 x [100 x i8]], [100 x [100 x i8]]* %2, i64 0, i64 %24, i64 %50
  store i8 0, i8* %51, align 1, !tbaa !20
  br label %52

52:                                               ; preds = %49, %47
  %53 = extractelement <8 x i1> %31, i32 4
  br i1 %53, label %54, label %57

54:                                               ; preds = %52
  %55 = extractelement <8 x i64> %32, i32 4
  %56 = getelementptr inbounds [100 x [100 x i8]], [100 x [100 x i8]]* %2, i64 0, i64 %24, i64 %55
  store i8 0, i8* %56, align 1, !tbaa !20
  br label %57

57:                                               ; preds = %54, %52
  %58 = extractelement <8 x i1> %31, i32 5
  br i1 %58, label %59, label %62

59:                                               ; preds = %57
  %60 = extractelement <8 x i64> %32, i32 5
  %61 = getelementptr inbounds [100 x [100 x i8]], [100 x [100 x i8]]* %2, i64 0, i64 %24, i64 %60
  store i8 0, i8* %61, align 1, !tbaa !20
  br label %62

62:                                               ; preds = %59, %57
  %63 = extractelement <8 x i1> %31, i32 6
  br i1 %63, label %64, label %67

64:                                               ; preds = %62
  %65 = extractelement <8 x i64> %32, i32 6
  %66 = getelementptr inbounds [100 x [100 x i8]], [100 x [100 x i8]]* %2, i64 0, i64 %24, i64 %65
  store i8 0, i8* %66, align 1, !tbaa !20
  br label %67

67:                                               ; preds = %64, %62
  %68 = extractelement <8 x i1> %31, i32 7
  br i1 %68, label %69, label %72

69:                                               ; preds = %67
  %70 = extractelement <8 x i64> %32, i32 7
  %71 = getelementptr inbounds [100 x [100 x i8]], [100 x [100 x i8]]* %2, i64 0, i64 %24, i64 %70
  store i8 0, i8* %71, align 1, !tbaa !20
  br label %72

72:                                               ; preds = %69, %67
  %73 = add nuw i64 %26, 8
  %74 = add <8 x i64> %27, <i64 8, i64 8, i64 8, i64 8, i64 8, i64 8, i64 8, i64 8>
  %75 = icmp eq i64 %73, 96
  br i1 %75, label %81, label %25, !llvm.loop !21

76:                                               ; preds = %118
  %77 = shl i64 %5, 32
  %78 = ashr exact i64 %77, 32
  %79 = call i32 @llvm.smax.i32(i32 %23, i32 1)
  %80 = zext i32 %79 to i64
  br label %91

81:                                               ; preds = %72
  %82 = getelementptr inbounds [100 x [100 x i8]], [100 x [100 x i8]]* %2, i64 0, i64 %24, i64 96
  %83 = load i8, i8* %82, align 4, !tbaa !20
  %84 = icmp eq i8 %83, 0
  br i1 %84, label %85, label %87

85:                                               ; preds = %81
  %86 = getelementptr inbounds [100 x [100 x i8]], [100 x [100 x i8]]* %2, i64 0, i64 %24, i64 95
  store i8 0, i8* %86, align 1, !tbaa !20
  br label %87

87:                                               ; preds = %81, %85
  %88 = getelementptr inbounds [100 x [100 x i8]], [100 x [100 x i8]]* %2, i64 0, i64 %24, i64 97
  %89 = load i8, i8* %88, align 1, !tbaa !20
  %90 = icmp eq i8 %89, 0
  br i1 %90, label %104, label %106

91:                                               ; preds = %76, %91
  %92 = phi i64 [ 0, %76 ], [ %99, %91 ]
  %93 = xor i64 %92, -1
  %94 = add nsw i64 %78, %93
  %95 = getelementptr inbounds [100 x [100 x i8]], [100 x [100 x i8]]* %2, i64 0, i64 %94, i64 0
  %96 = call i64 @strlen(i8* noundef nonnull dereferenceable(1) %95) #8
  %97 = call nonnull align 8 dereferenceable(8) %"class.std::basic_ostream"* @_ZSt16__ostream_insertIcSt11char_traitsIcEERSt13basic_ostreamIT_T0_ES6_PKS3_l(%"class.std::basic_ostream"* nonnull align 8 dereferenceable(8) @_ZSt4cout, i8* nonnull %95, i64 %96)
  call void @llvm.lifetime.start.p0i8(i64 1, i8* nonnull %1)
  store i8 32, i8* %1, align 1, !tbaa !20
  %98 = call nonnull align 8 dereferenceable(8) %"class.std::basic_ostream"* @_ZSt16__ostream_insertIcSt11char_traitsIcEERSt13basic_ostreamIT_T0_ES6_PKS3_l(%"class.std::basic_ostream"* nonnull align 8 dereferenceable(8) @_ZSt4cout, i8* nonnull %1, i64 1)
  call void @llvm.lifetime.end.p0i8(i64 1, i8* nonnull %1)
  %99 = add nuw nsw i64 %92, 1
  %100 = icmp eq i64 %99, %80
  br i1 %100, label %101, label %91, !llvm.loop !23

101:                                              ; preds = %91, %118
  %102 = call i64 @strlen(i8* noundef nonnull dereferenceable(1) %3) #8
  %103 = call nonnull align 8 dereferenceable(8) %"class.std::basic_ostream"* @_ZSt16__ostream_insertIcSt11char_traitsIcEERSt13basic_ostreamIT_T0_ES6_PKS3_l(%"class.std::basic_ostream"* nonnull align 8 dereferenceable(8) @_ZSt4cout, i8* nonnull %3, i64 %102)
  call void @llvm.lifetime.end.p0i8(i64 10000, i8* nonnull %3) #8
  ret i32 0

104:                                              ; preds = %87
  %105 = getelementptr inbounds [100 x [100 x i8]], [100 x [100 x i8]]* %2, i64 0, i64 %24, i64 96
  store i8 0, i8* %105, align 4, !tbaa !20
  br label %106

106:                                              ; preds = %104, %87
  %107 = getelementptr inbounds [100 x [100 x i8]], [100 x [100 x i8]]* %2, i64 0, i64 %24, i64 98
  %108 = load i8, i8* %107, align 2, !tbaa !20
  %109 = icmp eq i8 %108, 0
  br i1 %109, label %110, label %112

110:                                              ; preds = %106
  %111 = getelementptr inbounds [100 x [100 x i8]], [100 x [100 x i8]]* %2, i64 0, i64 %24, i64 97
  store i8 0, i8* %111, align 1, !tbaa !20
  br label %112

112:                                              ; preds = %110, %106
  %113 = getelementptr inbounds [100 x [100 x i8]], [100 x [100 x i8]]* %2, i64 0, i64 %24, i64 99
  %114 = load i8, i8* %113, align 1, !tbaa !20
  %115 = icmp eq i8 %114, 0
  br i1 %115, label %116, label %118

116:                                              ; preds = %112
  %117 = getelementptr inbounds [100 x [100 x i8]], [100 x [100 x i8]]* %2, i64 0, i64 %24, i64 98
  store i8 0, i8* %117, align 2, !tbaa !20
  br label %118

118:                                              ; preds = %116, %112
  %119 = icmp ugt i32 %22, 1
  br i1 %119, label %76, label %101
}

; Function Attrs: argmemonly mustprogress nofree nosync nounwind willreturn
declare void @llvm.lifetime.start.p0i8(i64 immarg, i8* nocapture) #4

declare nonnull align 8 dereferenceable(16) %"class.std::basic_istream"* @_ZNSi7getlineEPclc(%"class.std::basic_istream"* nonnull align 8 dereferenceable(16), i8*, i64, i8 signext) local_unnamed_addr #0

; Function Attrs: argmemonly mustprogress nofree nosync nounwind willreturn
declare void @llvm.lifetime.end.p0i8(i64 immarg, i8* nocapture) #4

declare nonnull align 8 dereferenceable(8) %"class.std::basic_ostream"* @_ZSt16__ostream_insertIcSt11char_traitsIcEERSt13basic_ostreamIT_T0_ES6_PKS3_l(%"class.std::basic_ostream"* nonnull align 8 dereferenceable(8), i8*, i64) local_unnamed_addr #0

; Function Attrs: argmemonly mustprogress nofree nounwind readonly willreturn
declare i64 @strlen(i8* nocapture) local_unnamed_addr #5

; Function Attrs: sspstrong uwtable
define internal void @_GLOBAL__sub_I_304.cpp() #6 section ".text.startup" {
  tail call void @_ZNSt8ios_base4InitC1Ev(%"class.std::ios_base::Init"* nonnull align 1 dereferenceable(1) @_ZStL8__ioinit)
  %1 = tail call i32 @__cxa_atexit(void (i8*)* bitcast (void (%"class.std::ios_base::Init"*)* @_ZNSt8ios_base4InitD1Ev to void (i8*)*), i8* getelementptr inbounds (%"class.std::ios_base::Init", %"class.std::ios_base::Init"* @_ZStL8__ioinit, i64 0, i32 0), i8* nonnull @__dso_handle) #8
  ret void
}

; Function Attrs: nofree nosync nounwind readnone speculatable willreturn
declare i32 @llvm.smax.i32(i32, i32) #7


!llvm.module.flags = !{!0, !1, !2, !3}
!llvm.ident = !{!4}

!0 = !{i32 1, !"wchar_size", i32 4}
!1 = !{i32 7, !"PIC Level", i32 2}
!2 = !{i32 7, !"PIE Level", i32 2}
!3 = !{i32 7, !"uwtable", i32 1}
!4 = !{!"clang version 13.0.0"}
!5 = !{!6, !6, i64 0}
!6 = !{!"vtable pointer", !7, i64 0}
!7 = !{!"Simple C++ TBAA"}
!8 = !{!9, !13, i64 32}
!9 = !{!"_ZTSSt8ios_base", !10, i64 8, !10, i64 16, !12, i64 24, !13, i64 28, !13, i64 32, !14, i64 40, !15, i64 48, !11, i64 64, !16, i64 192, !14, i64 200, !17, i64 208}
!10 = !{!"long", !11, i64 0}
!11 = !{!"omnipotent char", !7, i64 0}
!12 = !{!"_ZTSSt13_Ios_Fmtflags", !11, i64 0}
!13 = !{!"_ZTSSt12_Ios_Iostate", !11, i64 0}
!14 = !{!"any pointer", !11, i64 0}
!15 = !{!"_ZTSNSt8ios_base6_WordsE", !14, i64 0, !10, i64 8}
!16 = !{!"int", !11, i64 0}
!17 = !{!"_ZTSSt6locale", !14, i64 0}
!18 = distinct !{!18, !19}
!19 = !{!"llvm.loop.mustprogress"}
!20 = !{!11, !11, i64 0}
!21 = distinct !{!21, !19, !22}
!22 = !{!"llvm.loop.isvectorized", i32 1}
!23 = distinct !{!23, !19}
